target datalayout = "e-m:e-p270:32:32-p271:32:32-p272:64:64-i64:64-i128:128-f80:128-n8:16:32:64-S128"
target triple = "x86_64-pc-linux-gnu"

%struct.JNINativeInterface_ = type { ptr, ptr, ptr, ptr, ptr, ptr, ptr, ptr, ptr, ptr, ptr, ptr, ptr, ptr, ptr, ptr, ptr, ptr, ptr, ptr, ptr, ptr, ptr, ptr, ptr, ptr, ptr, ptr, ptr, ptr, ptr, ptr, ptr, ptr, ptr, ptr, ptr, ptr, ptr, ptr, ptr, ptr, ptr, ptr, ptr, ptr, ptr, ptr, ptr, ptr, ptr, ptr, ptr, ptr, ptr, ptr, ptr, ptr, ptr, ptr, ptr, ptr, ptr, ptr, ptr, ptr, ptr, ptr, ptr, ptr, ptr, ptr, ptr, ptr, ptr, ptr, ptr, ptr, ptr, ptr, ptr, ptr, ptr, ptr, ptr, ptr, ptr, ptr, ptr, ptr, ptr, ptr, ptr, ptr, ptr, ptr, ptr, ptr, ptr, ptr, ptr, ptr, ptr, ptr, ptr, ptr, ptr, ptr, ptr, ptr, ptr, ptr, ptr, ptr, ptr, ptr, ptr, ptr, ptr, ptr, ptr, ptr, ptr, ptr, ptr, ptr, ptr, ptr, ptr, ptr, ptr, ptr, ptr, ptr, ptr, ptr, ptr, ptr, ptr, ptr, ptr, ptr, ptr, ptr, ptr, ptr, ptr, ptr, ptr, ptr, ptr, ptr, ptr, ptr, ptr, ptr, ptr, ptr, ptr, ptr, ptr, ptr, ptr, ptr, ptr, ptr, ptr, ptr, ptr, ptr, ptr, ptr, ptr, ptr, ptr, ptr, ptr, ptr, ptr, ptr, ptr, ptr, ptr, ptr, ptr, ptr, ptr, ptr, ptr, ptr, ptr, ptr, ptr, ptr, ptr, ptr, ptr, ptr, ptr, ptr, ptr, ptr, ptr, ptr, ptr, ptr, ptr, ptr, ptr, ptr, ptr, ptr, ptr, ptr, ptr, ptr, ptr, ptr, ptr, ptr, ptr, ptr, ptr, ptr, ptr, ptr, ptr, ptr, ptr, ptr, ptr, ptr, ptr, ptr, ptr }
%struct.CK_FUNCTION_LIST = type { %struct.CK_VERSION, ptr, ptr, ptr, ptr, ptr, ptr, ptr, ptr, ptr, ptr, ptr, ptr, ptr, ptr, ptr, ptr, ptr, ptr, ptr, ptr, ptr, ptr, ptr, ptr, ptr, ptr, ptr, ptr, ptr, ptr, ptr, ptr, ptr, ptr, ptr, ptr, ptr, ptr, ptr, ptr, ptr, ptr, ptr, ptr, ptr, ptr, ptr, ptr, ptr, ptr, ptr, ptr, ptr, ptr, ptr, ptr, ptr, ptr, ptr, ptr, ptr, ptr, ptr, ptr, ptr, ptr, ptr, ptr }
%struct.CK_VERSION = type { i8, i8 }

; Function Attrs: nounwind uwtable
define i32 @Java_sun_security_pkcs11_wrapper_PKCS11_C_1VerifyRecover(ptr noundef %0, ptr noundef %1, i64 noundef %2, ptr noundef %3, i32 noundef %4, i32 noundef %5, ptr noundef %6, i32 noundef %7, i32 noundef %8) #0 {
  %10 = alloca i32, align 4
  %11 = alloca ptr, align 8
  %12 = alloca ptr, align 8
  %13 = alloca i64, align 8
  %14 = alloca ptr, align 8
  %15 = alloca i32, align 4
  %16 = alloca i32, align 4
  %17 = alloca ptr, align 8
  %18 = alloca i32, align 4
  %19 = alloca i32, align 4
  %20 = alloca i64, align 8
  %21 = alloca i64, align 8
  %22 = alloca [4096 x i8], align 16
  %23 = alloca [4096 x i8], align 16
  %24 = alloca ptr, align 8
  %25 = alloca ptr, align 8
  %26 = alloca i64, align 8
  %27 = alloca ptr, align 8
  store ptr %0, ptr %11, align 8
  store ptr %1, ptr %12, align 8
  store i64 %2, ptr %13, align 8
  store ptr %3, ptr %14, align 8
  store i32 %4, ptr %15, align 4
  store i32 %5, ptr %16, align 4
  store ptr %6, ptr %17, align 8
  store i32 %7, ptr %18, align 4
  store i32 %8, ptr %19, align 4
  %28 = getelementptr inbounds [4096 x i8], ptr %23, i64 0, i64 0
  store ptr %28, ptr %25, align 8
  store i64 0, ptr %26, align 8
  %29 = load ptr, ptr %11, align 8
  %30 = load ptr, ptr %12, align 8
  %31 = call ptr @getFunctionList(ptr noundef %29, ptr noundef %30)
  store ptr %31, ptr %27, align 8
  %32 = load ptr, ptr %27, align 8
  %33 = icmp eq ptr %32, null
  br i1 %33, label %34, label %35

34:                                               ; preds = %9
  store i32 0, ptr %10, align 4
  br label %136

35:                                               ; preds = %9
  %36 = load i64, ptr %13, align 8
  store i64 %36, ptr %20, align 8
  %37 = load i32, ptr %16, align 4
  %38 = icmp sle i32 %37, 4096
  br i1 %38, label %39, label %41

39:                                               ; preds = %35
  %40 = getelementptr inbounds [4096 x i8], ptr %22, i64 0, i64 0
  store ptr %40, ptr %24, align 8
  store i64 4096, ptr %26, align 8
  br label %52

41:                                               ; preds = %35
  %42 = load i32, ptr %16, align 4
  %43 = sext i32 %42 to i64
  %44 = call noalias ptr @malloc(i64 noundef %43) #4
  store ptr %44, ptr %24, align 8
  %45 = load ptr, ptr %24, align 8
  %46 = icmp eq ptr %45, null
  br i1 %46, label %47, label %49

47:                                               ; preds = %41
  %48 = load ptr, ptr %11, align 8
  call void @p11ThrowOutOfMemoryError(ptr noundef %48, ptr noundef null)
  store i32 0, ptr %10, align 4
  br label %136

49:                                               ; preds = %41
  %50 = load i32, ptr %16, align 4
  %51 = sext i32 %50 to i64
  store i64 %51, ptr %26, align 8
  br label %52

52:                                               ; preds = %49, %39
  %53 = load ptr, ptr %11, align 8
  %54 = load ptr, ptr %53, align 8
  %55 = getelementptr inbounds %struct.JNINativeInterface_, ptr %54, i32 0, i32 200
  %56 = load ptr, ptr %55, align 8
  %57 = load ptr, ptr %11, align 8
  %58 = load ptr, ptr %14, align 8
  %59 = load i32, ptr %15, align 4
  %60 = load i32, ptr %16, align 4
  %61 = load ptr, ptr %24, align 8
  call void %56(ptr noundef %57, ptr noundef %58, i32 noundef %59, i32 noundef %60, ptr noundef %61)
  %62 = load ptr, ptr %11, align 8
  %63 = load ptr, ptr %62, align 8
  %64 = getelementptr inbounds %struct.JNINativeInterface_, ptr %63, i32 0, i32 228
  %65 = load ptr, ptr %64, align 8
  %66 = load ptr, ptr %11, align 8
  %67 = call zeroext i8 %65(ptr noundef %66)
  %68 = icmp ne i8 %67, 0
  br i1 %68, label %69, label %70

69:                                               ; preds = %52
  br label %121

70:                                               ; preds = %52
  %71 = load ptr, ptr %27, align 8
  %72 = getelementptr inbounds %struct.CK_FUNCTION_LIST, ptr %71, i32 0, i32 54
  %73 = load ptr, ptr %72, align 8
  %74 = load i64, ptr %20, align 8
  %75 = load ptr, ptr %24, align 8
  %76 = load i32, ptr %16, align 4
  %77 = sext i32 %76 to i64
  %78 = load ptr, ptr %25, align 8
  %79 = call i64 %73(i64 noundef %74, ptr noundef %75, i64 noundef %77, ptr noundef %78, ptr noundef %26)
  store i64 %79, ptr %21, align 8
  %80 = load i64, ptr %21, align 8
  %81 = icmp eq i64 %80, 336
  br i1 %81, label %82, label %104

82:                                               ; preds = %70
  %83 = load i64, ptr %26, align 8
  %84 = load i32, ptr %19, align 4
  %85 = sext i32 %84 to i64
  %86 = icmp ule i64 %83, %85
  br i1 %86, label %87, label %104

87:                                               ; preds = %82
  %88 = load i64, ptr %26, align 8
  %89 = call noalias ptr @malloc(i64 noundef %88) #4
  store ptr %89, ptr %25, align 8
  %90 = load ptr, ptr %25, align 8
  %91 = icmp eq ptr %90, null
  br i1 %91, label %92, label %94

92:                                               ; preds = %87
  %93 = load ptr, ptr %11, align 8
  call void @p11ThrowOutOfMemoryError(ptr noundef %93, ptr noundef null)
  br label %121

94:                                               ; preds = %87
  %95 = load ptr, ptr %27, align 8
  %96 = getelementptr inbounds %struct.CK_FUNCTION_LIST, ptr %95, i32 0, i32 54
  %97 = load ptr, ptr %96, align 8
  %98 = load i64, ptr %20, align 8
  %99 = load ptr, ptr %24, align 8
  %100 = load i32, ptr %16, align 4
  %101 = sext i32 %100 to i64
  %102 = load ptr, ptr %25, align 8
  %103 = call i64 %97(i64 noundef %98, ptr noundef %99, i64 noundef %101, ptr noundef %102, ptr noundef %26)
  store i64 %103, ptr %21, align 8
  br label %104

104:                                              ; preds = %94, %82, %70
  %105 = load ptr, ptr %11, align 8
  %106 = load i64, ptr %21, align 8
  %107 = call i64 @ckAssertReturnValueOK(ptr noundef %105, i64 noundef %106)
  %108 = icmp eq i64 %107, 0
  br i1 %108, label %109, label %120

109:                                              ; preds = %104
  %110 = load ptr, ptr %11, align 8
  %111 = load ptr, ptr %110, align 8
  %112 = getelementptr inbounds %struct.JNINativeInterface_, ptr %111, i32 0, i32 208
  %113 = load ptr, ptr %112, align 8
  %114 = load ptr, ptr %11, align 8
  %115 = load ptr, ptr %17, align 8
  %116 = load i32, ptr %18, align 4
  %117 = load i64, ptr %26, align 8
  %118 = trunc i64 %117 to i32
  %119 = load ptr, ptr %25, align 8
  call void %113(ptr noundef %114, ptr noundef %115, i32 noundef %116, i32 noundef %118, ptr noundef %119)
  br label %120

120:                                              ; preds = %109, %104
  br label %121

121:                                              ; preds = %120, %92, %69
  %122 = load ptr, ptr %24, align 8
  %123 = getelementptr inbounds [4096 x i8], ptr %22, i64 0, i64 0
  %124 = icmp ne ptr %122, %123
  br i1 %124, label %125, label %127

125:                                              ; preds = %121
  %126 = load ptr, ptr %24, align 8
  call void @free(ptr noundef %126) #5
  br label %127

127:                                              ; preds = %125, %121
  %128 = load ptr, ptr %25, align 8
  %129 = getelementptr inbounds [4096 x i8], ptr %23, i64 0, i64 0
  %130 = icmp ne ptr %128, %129
  br i1 %130, label %131, label %133

131:                                              ; preds = %127
  %132 = load ptr, ptr %25, align 8
  call void @free(ptr noundef %132) #5
  br label %133

133:                                              ; preds = %131, %127
  %134 = load i64, ptr %26, align 8
  %135 = trunc i64 %134 to i32
  store i32 %135, ptr %10, align 4
  br label %136

136:                                              ; preds = %133, %47, %34
  %137 = load i32, ptr %10, align 4
  ret i32 %137
}