; Function Attrs: nounwind uwtable
define i32 @Java_sun_security_pkcs11_wrapper_PKCS11_C_1VerifyRecover(ptr noundef %0, ptr noundef %1, i64 noundef %2, ptr noundef %3, i32 noundef %4, i32 noundef %5, ptr noundef %6, i32 noundef %7, i32 noundef %8) local_unnamed_addr #0 {
  %10 = alloca [4096 x i8], align 16
  %11 = alloca [4096 x i8], align 16
  %12 = alloca i64, align 8
  %13 = tail call ptr @getFunctionList(ptr noundef %0, ptr noundef %1) #5
  %14 = icmp eq ptr %13, null
  br i1 %14, label %62, label %15

15:                                               ; preds = %9
  %16 = icmp slt i32 %5, 4097
  br i1 %16, label %22, label %17

17:                                               ; preds = %15
  %18 = zext nneg i32 %5 to i64
  %19 = tail call noalias ptr @malloc(i64 noundef %18) #6
  %20 = icmp eq ptr %19, null
  br i1 %20, label %21, label %22

21:                                               ; preds = %17
  tail call void @p11ThrowOutOfMemoryError(ptr noundef %0, ptr noundef null) #5
  br label %62

22:                                               ; preds = %17, %15
  %storemerge = phi i64 [ 4096, %15 ], [ %18, %17 ]
  %.043 = phi ptr [ %10, %15 ], [ %19, %17 ]
  store i64 %storemerge, ptr %12, align 8
  %23 = load ptr, ptr %0, align 8
  %24 = getelementptr inbounds i8, ptr %23, i64 1600
  %25 = load ptr, ptr %24, align 8
  call void %25(ptr noundef nonnull %0, ptr noundef %3, i32 noundef %4, i32 noundef %5, ptr noundef nonnull %.043) #5
  %26 = load ptr, ptr %0, align 8
  %27 = getelementptr inbounds i8, ptr %26, i64 1824
  %28 = load ptr, ptr %27, align 8
  %29 = call zeroext i8 %28(ptr noundef nonnull %0) #5
  %.not = icmp eq i8 %29, 0
  br i1 %.not, label %30, label %55

30:                                               ; preds = %22
  %31 = getelementptr inbounds i8, ptr %13, i64 432
  %32 = load ptr, ptr %31, align 8
  %33 = sext i32 %5 to i64
  %34 = call i64 %32(i64 noundef %2, ptr noundef nonnull %.043, i64 noundef %33, ptr noundef nonnull %11, ptr noundef nonnull %12) #5
  %35 = icmp eq i64 %34, 336
  br i1 %35, label %36, label %46

36:                                               ; preds = %30
  %37 = load i64, ptr %12, align 8
  %38 = sext i32 %8 to i64
  %.not53 = icmp ugt i64 %37, %38
  br i1 %.not53, label %46, label %39

39:                                               ; preds = %36
  %40 = call noalias ptr @malloc(i64 noundef %37) #6
  %41 = icmp eq ptr %40, null
  br i1 %41, label %42, label %43

42:                                               ; preds = %39
  call void @p11ThrowOutOfMemoryError(ptr noundef nonnull %0, ptr noundef null) #5
  br label %55

43:                                               ; preds = %39
  %44 = load ptr, ptr %31, align 8
  %45 = call i64 %44(i64 noundef %2, ptr noundef nonnull %.043, i64 noundef %33, ptr noundef nonnull %40, ptr noundef nonnull %12) #5
  br label %46

46:                                               ; preds = %43, %36, %30
  %.044 = phi i64 [ %45, %43 ], [ 336, %36 ], [ %34, %30 ]
  %.042 = phi ptr [ %40, %43 ], [ %11, %36 ], [ %11, %30 ]
  %47 = call i64 @ckAssertReturnValueOK(ptr noundef nonnull %0, i64 noundef %.044) #5
  %48 = icmp eq i64 %47, 0
  br i1 %48, label %49, label %55

49:                                               ; preds = %46
  %50 = load ptr, ptr %0, align 8
  %51 = getelementptr inbounds i8, ptr %50, i64 1664
  %52 = load ptr, ptr %51, align 8
  %53 = load i64, ptr %12, align 8
  %54 = trunc i64 %53 to i32
  call void %52(ptr noundef nonnull %0, ptr noundef %6, i32 noundef %7, i32 noundef %54, ptr noundef nonnull %.042) #5
  br label %55

55:                                               ; preds = %46, %49, %22, %42
  %.1 = phi ptr [ %11, %22 ], [ null, %42 ], [ %.042, %49 ], [ %.042, %46 ]
  %.not54 = icmp eq ptr %.043, %10
  br i1 %.not54, label %57, label %56

56:                                               ; preds = %55
  call void @free(ptr noundef nonnull %.043) #5
  br label %57

57:                                               ; preds = %56, %55
  %.not55 = icmp eq ptr %.1, %11
  br i1 %.not55, label %59, label %58

58:                                               ; preds = %57
  call void @free(ptr noundef %.1) #5
  br label %59

59:                                               ; preds = %58, %57
  %60 = load i64, ptr %12, align 8
  %61 = trunc i64 %60 to i32
  br label %62

62:                                               ; preds = %9, %59, %21
  %.0 = phi i32 [ %61, %59 ], [ 0, %21 ], [ 0, %9 ]
  ret i32 %.0
}